target datalayout = "e-m:e-p270:32:32-p271:32:32-p272:64:64-i64:64-i128:128-f80:128-n8:16:32:64-S128"
target triple = "x86_64-pc-linux-gnu"

%struct.jpeg_transform_info = type { i32, i32, i32, i32, i32, i32, i32, i32, i32, i32, i32, i32, i32, i32, ptr, ptr, i32, ptr, i32, i32, i32, i32, i32, i32, i32, i32 }

@progname = internal global ptr null, align 8
@stderr = external global ptr, align 8
@transformoption = internal global %struct.jpeg_transform_info zeroinitializer, align 8
@.str.59 = private unnamed_addr constant [52 x i8] c"%s: can only do one image transformation at a time\0A\00", align 1

; Function Attrs: nounwind uwtable
define internal void @select_transform(i32 noundef %0) #0 {
  %2 = alloca i32, align 4
  store i32 %0, ptr %2, align 4, !tbaa !4
  %3 = load i32, ptr @transformoption, align 8, !tbaa !77
  %4 = icmp eq i32 %3, 0
  br i1 %4, label %9, label %5

5:                                                ; preds = %1
  %6 = load i32, ptr @transformoption, align 8, !tbaa !77
  %7 = load i32, ptr %2, align 4, !tbaa !4
  %8 = icmp eq i32 %6, %7
  br i1 %8, label %9, label %11

9:                                                ; preds = %5, %1
  %10 = load i32, ptr %2, align 4, !tbaa !4
  store i32 %10, ptr @transformoption, align 8, !tbaa !77
  br label %15

11:                                               ; preds = %5
  %12 = load ptr, ptr @stderr, align 8, !tbaa !56
  %13 = load ptr, ptr @progname, align 8, !tbaa !11
  %14 = call i32 (ptr, ptr, ...) @fprintf(ptr noundef %12, ptr noundef @.str.59, ptr noundef %13) #6
  call void @usage()
  br label %15

15:                                               ; preds = %11, %9
  ret void
}