; Function Attrs: nofree nounwind uwtable
define internal fastcc void @select_transform(i32 noundef range(i32 1, 10) %0) unnamed_addr #9 {
  %2 = load i32, ptr @transformoption, align 8, !tbaa !74
  %3 = icmp eq i32 %2, 0
  %4 = icmp eq i32 %2, %0
  %or.cond = or i1 %3, %4
  br i1 %or.cond, label %5, label %6

5:                                                ; preds = %1
  store i32 %0, ptr @transformoption, align 8, !tbaa !74
  ret void

6:                                                ; preds = %1
  %7 = load ptr, ptr @stderr, align 8, !tbaa !53
  %8 = load ptr, ptr @progname, align 8, !tbaa !4
  %9 = tail call i32 (ptr, ptr, ...) @fprintf(ptr noundef %7, ptr noundef nonnull @.str.59, ptr noundef %8) #13
  tail call fastcc void @usage()
  unreachable
}